target datalayout = "e-m:e-p270:32:32-p271:32:32-p272:64:64-i64:64-i128:128-f80:128-n8:16:32:64-S128"
target triple = "x86_64-pc-linux-gnu"

@hf_ieee80211_mscs_descriptor_type = internal global i32 0, align 4
@hf_ieee80211_mscs_user_prio_control_reserved = internal global i32 0, align 4
@hf_ieee80211_user_prio_bitmap = internal global i32 0, align 4
@hf_ieee80211_user_prio_limit = internal global i32 0, align 4
@hf_ieee80211_user_prio_reserved = internal global i32 0, align 4
@hf_ieee80211_stream_timeout_reserved = internal global i32 0, align 4
@hf_ieee80211_stream_timeout = internal global i32 0, align 4
@hf_ieee80211_mscs_subelement_id = internal global i32 0, align 4
@hf_ieee80211_mscs_subelement_len = internal global i32 0, align 4
@hf_ieee80211_mscs_subelement_data = internal global i32 0, align 4
@ett_mscs_user_prio = internal global i32 0, align 4
@ett_ieee80211_user_prio_bitmap = internal global i32 0, align 4
@.str.10283 = private unnamed_addr constant [22 x i8] c"User Priority Control\00", align 1

; Function Attrs: null_pointer_is_valid sspstrong uwtable
define hidden i32 @add_tagged_field(ptr noundef %0, ptr noundef %1, ptr noundef %2, i32 noundef %3, i32 noundef %4, ptr noundef %5, i32 noundef %6, ptr noundef %7) #1 {
  %9 = alloca ptr, align 8
  %10 = alloca ptr, align 8
  %11 = alloca ptr, align 8
  %12 = alloca i32, align 4
  %13 = alloca i32, align 4
  %14 = alloca ptr, align 8
  %15 = alloca i32, align 4
  %16 = alloca ptr, align 8
  store ptr %0, ptr %9, align 8
  store ptr %1, ptr %10, align 8
  store ptr %2, ptr %11, align 8
  store i32 %3, ptr %12, align 4
  store i32 %4, ptr %13, align 4
  store ptr %5, ptr %14, align 8
  store i32 %6, ptr %15, align 4
  store ptr %7, ptr %16, align 8
  %17 = load ptr, ptr %9, align 8
  %18 = load ptr, ptr %10, align 8
  %19 = load ptr, ptr %11, align 8
  %20 = load i32, ptr %12, align 4
  %21 = load i32, ptr %13, align 4
  %22 = load ptr, ptr %14, align 8
  %23 = load i32, ptr %15, align 4
  %24 = load ptr, ptr %16, align 8
  %25 = call i32 @add_tagged_field_with_validation(ptr noundef %17, ptr noundef %18, ptr noundef %19, i32 noundef %20, i32 noundef %21, ptr noundef %22, i32 noundef %23, i1 noundef zeroext false, ptr noundef null, i32 noundef 0, i1 noundef zeroext false, ptr noundef %24)
  ret i32 %25
}

; Function Attrs: null_pointer_is_valid sspstrong uwtable
define internal void @dissect_mscs_descriptor_element(ptr noundef %0, ptr noundef %1, ptr noundef %2, i32 noundef %3, i32 noundef %4) #1 {
  %6 = alloca ptr, align 8
  %7 = alloca ptr, align 8
  %8 = alloca ptr, align 8
  %9 = alloca i32, align 4
  %10 = alloca i32, align 4
  %11 = alloca i8, align 1
  %12 = alloca ptr, align 8
  %13 = alloca i32, align 4
  %14 = alloca i8, align 1
  store ptr %0, ptr %6, align 8
  store ptr %1, ptr %7, align 8
  store ptr %2, ptr %8, align 8
  store i32 %3, ptr %9, align 4
  store i32 %4, ptr %10, align 4
  call void @llvm.lifetime.start.p0(i64 1, ptr %11) #19
  %15 = load ptr, ptr %6, align 8
  %16 = load i32, ptr %9, align 4
  %17 = call zeroext i8 @tvb_get_uint8(ptr noundef %15, i32 noundef %16)
  store i8 %17, ptr %11, align 1
  %18 = load ptr, ptr %8, align 8
  %19 = load i32, ptr @hf_ieee80211_mscs_descriptor_type, align 4
  %20 = load ptr, ptr %6, align 8
  %21 = load i32, ptr %9, align 4
  %22 = call ptr @proto_tree_add_item(ptr noundef %18, i32 noundef %19, ptr noundef %20, i32 noundef %21, i32 noundef 1, i32 noundef 0)
  %23 = load i32, ptr %9, align 4
  %24 = add i32 %23, 1
  store i32 %24, ptr %9, align 4
  %25 = load i8, ptr %11, align 1
  %26 = zext i8 %25 to i32
  %27 = icmp eq i32 %26, 1
  br i1 %27, label %28, label %36

28:                                               ; preds = %5
  %29 = load ptr, ptr %8, align 8
  %30 = load i32, ptr @hf_ieee80211_mscs_user_prio_control_reserved, align 4
  %31 = load ptr, ptr %6, align 8
  %32 = load i32, ptr %9, align 4
  %33 = call ptr @proto_tree_add_item(ptr noundef %29, i32 noundef %30, ptr noundef %31, i32 noundef %32, i32 noundef 2, i32 noundef -2147483648)
  %34 = load i32, ptr %9, align 4
  %35 = add i32 %34, 2
  store i32 %35, ptr %9, align 4
  br label %62

36:                                               ; preds = %5
  call void @llvm.lifetime.start.p0(i64 8, ptr %12) #19
  store ptr null, ptr %12, align 8
  %37 = load ptr, ptr %8, align 8
  %38 = load ptr, ptr %6, align 8
  %39 = load i32, ptr %9, align 4
  %40 = load i32, ptr @ett_mscs_user_prio, align 4
  %41 = call ptr @proto_tree_add_subtree(ptr noundef %37, ptr noundef %38, i32 noundef %39, i32 noundef 2, i32 noundef %40, ptr noundef null, ptr noundef @.str.10283)
  store ptr %41, ptr %12, align 8
  %42 = load ptr, ptr %12, align 8
  %43 = load ptr, ptr %6, align 8
  %44 = load i32, ptr %9, align 4
  %45 = load i32, ptr @hf_ieee80211_user_prio_bitmap, align 4
  %46 = load i32, ptr @ett_ieee80211_user_prio_bitmap, align 4
  %47 = call ptr @proto_tree_add_bitmask_with_flags(ptr noundef %42, ptr noundef %43, i32 noundef %44, i32 noundef %45, i32 noundef %46, ptr noundef @user_prio_bitmap_headers, i32 noundef 0, i32 noundef 1)
  %48 = load i32, ptr %9, align 4
  %49 = add i32 %48, 1
  store i32 %49, ptr %9, align 4
  %50 = load ptr, ptr %12, align 8
  %51 = load i32, ptr @hf_ieee80211_user_prio_limit, align 4
  %52 = load ptr, ptr %6, align 8
  %53 = load i32, ptr %9, align 4
  %54 = call ptr @proto_tree_add_item(ptr noundef %50, i32 noundef %51, ptr noundef %52, i32 noundef %53, i32 noundef 1, i32 noundef 0)
  %55 = load ptr, ptr %12, align 8
  %56 = load i32, ptr @hf_ieee80211_user_prio_reserved, align 4
  %57 = load ptr, ptr %6, align 8
  %58 = load i32, ptr %9, align 4
  %59 = call ptr @proto_tree_add_item(ptr noundef %55, i32 noundef %56, ptr noundef %57, i32 noundef %58, i32 noundef 1, i32 noundef 0)
  %60 = load i32, ptr %9, align 4
  %61 = add i32 %60, 1
  store i32 %61, ptr %9, align 4
  call void @llvm.lifetime.end.p0(i64 8, ptr %12) #19
  br label %62

62:                                               ; preds = %36, %28
  %63 = load i8, ptr %11, align 1
  %64 = zext i8 %63 to i32
  %65 = icmp eq i32 %64, 1
  br i1 %65, label %66, label %72

66:                                               ; preds = %62
  %67 = load ptr, ptr %8, align 8
  %68 = load i32, ptr @hf_ieee80211_stream_timeout_reserved, align 4
  %69 = load ptr, ptr %6, align 8
  %70 = load i32, ptr %9, align 4
  %71 = call ptr @proto_tree_add_item(ptr noundef %67, i32 noundef %68, ptr noundef %69, i32 noundef %70, i32 noundef 4, i32 noundef -2147483648)
  br label %78

72:                                               ; preds = %62
  %73 = load ptr, ptr %8, align 8
  %74 = load i32, ptr @hf_ieee80211_stream_timeout, align 4
  %75 = load ptr, ptr %6, align 8
  %76 = load i32, ptr %9, align 4
  %77 = call ptr @proto_tree_add_item(ptr noundef %73, i32 noundef %74, ptr noundef %75, i32 noundef %76, i32 noundef 4, i32 noundef -2147483648)
  br label %78

78:                                               ; preds = %72, %66
  %79 = load i32, ptr %9, align 4
  %80 = add i32 %79, 4
  store i32 %80, ptr %9, align 4
  %81 = load ptr, ptr %6, align 8
  %82 = load i32, ptr %9, align 4
  %83 = call i32 @tvb_reported_length_remaining(ptr noundef %81, i32 noundef %82)
  %84 = icmp eq i32 %83, 0
  br i1 %84, label %85, label %86

85:                                               ; preds = %78
  store i32 1, ptr %13, align 4
  br label %138

86:                                               ; preds = %78
  br label %87

87:                                               ; preds = %100, %86
  %88 = load ptr, ptr %6, align 8
  %89 = load i32, ptr %9, align 4
  %90 = call i32 @tvb_reported_length_remaining(ptr noundef %88, i32 noundef %89)
  %91 = icmp ne i32 %90, 0
  br i1 %91, label %92, label %98

92:                                               ; preds = %87
  %93 = load ptr, ptr %6, align 8
  %94 = load i32, ptr %9, align 4
  %95 = call zeroext i8 @tvb_get_uint8(ptr noundef %93, i32 noundef %94)
  %96 = zext i8 %95 to i32
  %97 = icmp eq i32 %96, 255
  br label %98

98:                                               ; preds = %92, %87
  %99 = phi i1 [ false, %87 ], [ %97, %92 ]
  br i1 %99, label %100, label %108

100:                                              ; preds = %98
  %101 = load ptr, ptr %7, align 8
  %102 = load ptr, ptr %8, align 8
  %103 = load ptr, ptr %6, align 8
  %104 = load i32, ptr %9, align 4
  %105 = call i32 @add_tagged_field(ptr noundef %101, ptr noundef %102, ptr noundef %103, i32 noundef %104, i32 noundef 0, ptr noundef null, i32 noundef 0, ptr noundef null)
  %106 = load i32, ptr %9, align 4
  %107 = add i32 %106, %105
  store i32 %107, ptr %9, align 4
  br label %87, !llvm.loop !231

108:                                              ; preds = %98
  %109 = load i32, ptr %9, align 4
  %110 = load i32, ptr %10, align 4
  %111 = icmp slt i32 %109, %110
  br i1 %111, label %112, label %137

112:                                              ; preds = %108
  call void @llvm.lifetime.start.p0(i64 1, ptr %14) #19
  %113 = load ptr, ptr %8, align 8
  %114 = load i32, ptr @hf_ieee80211_mscs_subelement_id, align 4
  %115 = load ptr, ptr %6, align 8
  %116 = load i32, ptr %9, align 4
  %117 = call ptr @proto_tree_add_item(ptr noundef %113, i32 noundef %114, ptr noundef %115, i32 noundef %116, i32 noundef 1, i32 noundef 0)
  %118 = load i32, ptr %9, align 4
  %119 = add i32 %118, 1
  store i32 %119, ptr %9, align 4
  %120 = load ptr, ptr %6, align 8
  %121 = load i32, ptr %9, align 4
  %122 = call zeroext i8 @tvb_get_uint8(ptr noundef %120, i32 noundef %121)
  store i8 %122, ptr %14, align 1
  %123 = load ptr, ptr %8, align 8
  %124 = load i32, ptr @hf_ieee80211_mscs_subelement_len, align 4
  %125 = load ptr, ptr %6, align 8
  %126 = load i32, ptr %9, align 4
  %127 = call ptr @proto_tree_add_item(ptr noundef %123, i32 noundef %124, ptr noundef %125, i32 noundef %126, i32 noundef 1, i32 noundef 0)
  %128 = load i32, ptr %9, align 4
  %129 = add i32 %128, 1
  store i32 %129, ptr %9, align 4
  %130 = load ptr, ptr %8, align 8
  %131 = load i32, ptr @hf_ieee80211_mscs_subelement_data, align 4
  %132 = load ptr, ptr %6, align 8
  %133 = load i32, ptr %9, align 4
  %134 = load i8, ptr %14, align 1
  %135 = zext i8 %134 to i32
  %136 = call ptr @proto_tree_add_item(ptr noundef %130, i32 noundef %131, ptr noundef %132, i32 noundef %133, i32 noundef %135, i32 noundef 0)
  call void @llvm.lifetime.end.p0(i64 1, ptr %14) #19
  br label %137

137:                                              ; preds = %112, %108
  store i32 0, ptr %13, align 4
  br label %138

138:                                              ; preds = %137, %85
  call void @llvm.lifetime.end.p0(i64 1, ptr %11) #19
  %139 = load i32, ptr %13, align 4
  switch i32 %139, label %141 [
    i32 0, label %140
    i32 1, label %140
  ]

140:                                              ; preds = %138, %138
  ret void

141:                                              ; preds = %138
  unreachable
}