; Function Attrs: null_pointer_is_valid sspstrong uwtable
define internal fastcc void @dissect_mscs_descriptor_element(ptr noundef %0, ptr noundef %1, ptr noundef %2, i32 noundef range(i32 0, 2147483647) %3) unnamed_addr #2 {
  %5 = tail call zeroext i8 @tvb_get_uint8(ptr noundef %0, i32 noundef 1)
  %6 = load i32, ptr @hf_ieee80211_mscs_descriptor_type, align 4
  %7 = tail call ptr @proto_tree_add_item(ptr noundef %2, i32 noundef %6, ptr noundef %0, i32 noundef 1, i32 noundef 1, i32 noundef 0)
  %8 = icmp eq i8 %5, 1
  br i1 %8, label %9, label %12

9:                                                ; preds = %4
  %10 = load i32, ptr @hf_ieee80211_mscs_user_prio_control_reserved, align 4
  %11 = tail call ptr @proto_tree_add_item(ptr noundef %2, i32 noundef %10, ptr noundef %0, i32 noundef 2, i32 noundef 2, i32 noundef -2147483648)
  br label %22

12:                                               ; preds = %4
  %13 = load i32, ptr @ett_mscs_user_prio, align 4
  %14 = tail call ptr @proto_tree_add_subtree(ptr noundef %2, ptr noundef %0, i32 noundef 2, i32 noundef 2, i32 noundef %13, ptr noundef null, ptr noundef nonnull @.str.10283)
  %15 = load i32, ptr @hf_ieee80211_user_prio_bitmap, align 4
  %16 = load i32, ptr @ett_ieee80211_user_prio_bitmap, align 4
  %17 = tail call ptr @proto_tree_add_bitmask_with_flags(ptr noundef %14, ptr noundef %0, i32 noundef 2, i32 noundef %15, i32 noundef %16, ptr noundef nonnull @user_prio_bitmap_headers, i32 noundef 0, i32 noundef 1)
  %18 = load i32, ptr @hf_ieee80211_user_prio_limit, align 4
  %19 = tail call ptr @proto_tree_add_item(ptr noundef %14, i32 noundef %18, ptr noundef %0, i32 noundef 3, i32 noundef 1, i32 noundef 0)
  %20 = load i32, ptr @hf_ieee80211_user_prio_reserved, align 4
  %21 = tail call ptr @proto_tree_add_item(ptr noundef %14, i32 noundef %20, ptr noundef %0, i32 noundef 3, i32 noundef 1, i32 noundef 0)
  br label %22

22:                                               ; preds = %12, %9
  %hf_ieee80211_stream_timeout.sink = phi ptr [ @hf_ieee80211_stream_timeout, %12 ], [ @hf_ieee80211_stream_timeout_reserved, %9 ]
  %23 = load i32, ptr %hf_ieee80211_stream_timeout.sink, align 4
  %24 = tail call ptr @proto_tree_add_item(ptr noundef %2, i32 noundef %23, ptr noundef %0, i32 noundef 4, i32 noundef 4, i32 noundef -2147483648)
  %25 = tail call i32 @tvb_reported_length_remaining(ptr noundef %0, i32 noundef 8)
  %26 = icmp eq i32 %25, 0
  br i1 %26, label %46, label %.preheader

.preheader:                                       ; preds = %22
  %27 = tail call i32 @tvb_reported_length_remaining(ptr noundef %0, i32 noundef 8)
  %.not59 = icmp eq i32 %27, 0
  br i1 %.not59, label %.critedge, label %.lr.ph

.lr.ph:                                           ; preds = %.preheader, %30
  %.160 = phi i32 [ %32, %30 ], [ 8, %.preheader ]
  %28 = tail call zeroext i8 @tvb_get_uint8(ptr noundef %0, i32 noundef %.160)
  %29 = icmp eq i8 %28, -1
  br i1 %29, label %30, label %.critedge

30:                                               ; preds = %.lr.ph
  %31 = tail call i32 @add_tagged_field_with_validation(ptr noundef %1, ptr noundef %2, ptr noundef %0, i32 noundef %.160, i32 noundef 0, ptr noundef null, i32 noundef 0, i1 noundef zeroext false, ptr noundef null, i32 noundef 0, i1 noundef zeroext false, ptr noundef null)
  %32 = add i32 %31, %.160
  %33 = tail call i32 @tvb_reported_length_remaining(ptr noundef %0, i32 noundef %32)
  %.not = icmp eq i32 %33, 0
  br i1 %.not, label %.critedge, label %.lr.ph, !llvm.loop !255

.critedge:                                        ; preds = %.lr.ph, %30, %.preheader
  %.1.lcssa = phi i32 [ 8, %.preheader ], [ %32, %30 ], [ %.160, %.lr.ph ]
  %34 = icmp slt i32 %.1.lcssa, %3
  br i1 %34, label %35, label %46

35:                                               ; preds = %.critedge
  %36 = load i32, ptr @hf_ieee80211_mscs_subelement_id, align 4
  %37 = tail call ptr @proto_tree_add_item(ptr noundef %2, i32 noundef %36, ptr noundef %0, i32 noundef %.1.lcssa, i32 noundef 1, i32 noundef 0)
  %38 = add nsw i32 %.1.lcssa, 1
  %39 = tail call zeroext i8 @tvb_get_uint8(ptr noundef %0, i32 noundef %38)
  %40 = load i32, ptr @hf_ieee80211_mscs_subelement_len, align 4
  %41 = tail call ptr @proto_tree_add_item(ptr noundef %2, i32 noundef %40, ptr noundef %0, i32 noundef %38, i32 noundef 1, i32 noundef 0)
  %42 = add nsw i32 %.1.lcssa, 2
  %43 = load i32, ptr @hf_ieee80211_mscs_subelement_data, align 4
  %44 = zext i8 %39 to i32
  %45 = tail call ptr @proto_tree_add_item(ptr noundef %2, i32 noundef %43, ptr noundef %0, i32 noundef %42, i32 noundef %44, i32 noundef 0)
  br label %46

46:                                               ; preds = %.critedge, %35, %22
  ret void
}